target datalayout = "e-m:e-p270:32:32-p271:32:32-p272:64:64-i64:64-i128:128-f80:128-n8:16:32:64-S128"
target triple = "x86_64-pc-linux-gnu"

%struct.OSQPCscMatrix = type { i64, i64, ptr, ptr, ptr, i64, i64 }

@.str.12 = private unnamed_addr constant [14 x i8] c"ERROR in %s: \00", align 1
@__func__.validate_data = private unnamed_addr constant [14 x i8] c"validate_data\00", align 1
@.str.13 = private unnamed_addr constant [32 x i8] c"Missing quadratic cost matrix P\00", align 1
@.str.14 = private unnamed_addr constant [2 x i8] c"\0A\00", align 1
@.str.15 = private unnamed_addr constant [28 x i8] c"Missing constraint matrix A\00", align 1
@.str.16 = private unnamed_addr constant [29 x i8] c"Missing linear cost vector q\00", align 1
@.str.17 = private unnamed_addr constant [53 x i8] c"n must be positive and m nonnegative; n = %i, m = %i\00", align 1
@.str.18 = private unnamed_addr constant [44 x i8] c"P does not have dimension n x n with n = %i\00", align 1
@.str.19 = private unnamed_addr constant [16 x i8] c"P is not square\00", align 1
@.str.20 = private unnamed_addr constant [26 x i8] c"P is not upper triangular\00", align 1
@.str.21 = private unnamed_addr constant [34 x i8] c"A does not have dimension %i x %i\00", align 1
@.str.22 = private unnamed_addr constant [65 x i8] c"Lower bound at index %d is greater than upper bound: %.4e > %.4e\00", align 1

; Function Attrs: nounwind uwtable
define i64 @validate_data(ptr noundef %0, ptr noundef %1, ptr noundef %2, ptr noundef %3, ptr noundef %4, i64 noundef %5, i64 noundef %6) #0 {
  %8 = alloca i64, align 8
  %9 = alloca ptr, align 8
  %10 = alloca ptr, align 8
  %11 = alloca ptr, align 8
  %12 = alloca ptr, align 8
  %13 = alloca ptr, align 8
  %14 = alloca i64, align 8
  %15 = alloca i64, align 8
  %16 = alloca i64, align 8
  %17 = alloca i64, align 8
  store ptr %0, ptr %9, align 8
  store ptr %1, ptr %10, align 8
  store ptr %2, ptr %11, align 8
  store ptr %3, ptr %12, align 8
  store ptr %4, ptr %13, align 8
  store i64 %5, ptr %14, align 8
  store i64 %6, ptr %15, align 8
  %18 = load ptr, ptr %9, align 8
  %19 = icmp ne ptr %18, null
  br i1 %19, label %24, label %20

20:                                               ; preds = %7
  %21 = call i32 (ptr, ...) @printf(ptr noundef @.str.12, ptr noundef @__func__.validate_data)
  %22 = call i32 (ptr, ...) @printf(ptr noundef @.str.13)
  %23 = call i32 (ptr, ...) @printf(ptr noundef @.str.14)
  store i64 1, ptr %8, align 8
  br label %173

24:                                               ; preds = %7
  %25 = load ptr, ptr %11, align 8
  %26 = icmp ne ptr %25, null
  br i1 %26, label %31, label %27

27:                                               ; preds = %24
  %28 = call i32 (ptr, ...) @printf(ptr noundef @.str.12, ptr noundef @__func__.validate_data)
  %29 = call i32 (ptr, ...) @printf(ptr noundef @.str.15)
  %30 = call i32 (ptr, ...) @printf(ptr noundef @.str.14)
  store i64 1, ptr %8, align 8
  br label %173

31:                                               ; preds = %24
  %32 = load ptr, ptr %10, align 8
  %33 = icmp ne ptr %32, null
  br i1 %33, label %38, label %34

34:                                               ; preds = %31
  %35 = call i32 (ptr, ...) @printf(ptr noundef @.str.12, ptr noundef @__func__.validate_data)
  %36 = call i32 (ptr, ...) @printf(ptr noundef @.str.16)
  %37 = call i32 (ptr, ...) @printf(ptr noundef @.str.14)
  store i64 1, ptr %8, align 8
  br label %173

38:                                               ; preds = %31
  %39 = load i64, ptr %15, align 8
  %40 = icmp sle i64 %39, 0
  br i1 %40, label %44, label %41

41:                                               ; preds = %38
  %42 = load i64, ptr %14, align 8
  %43 = icmp slt i64 %42, 0
  br i1 %43, label %44, label %52

44:                                               ; preds = %41, %38
  %45 = call i32 (ptr, ...) @printf(ptr noundef @.str.12, ptr noundef @__func__.validate_data)
  %46 = load i64, ptr %15, align 8
  %47 = trunc i64 %46 to i32
  %48 = load i64, ptr %14, align 8
  %49 = trunc i64 %48 to i32
  %50 = call i32 (ptr, ...) @printf(ptr noundef @.str.17, i32 noundef %47, i32 noundef %49)
  %51 = call i32 (ptr, ...) @printf(ptr noundef @.str.14)
  store i64 1, ptr %8, align 8
  br label %173

52:                                               ; preds = %41
  %53 = load ptr, ptr %9, align 8
  %54 = getelementptr inbounds %struct.OSQPCscMatrix, ptr %53, i32 0, i32 0
  %55 = load i64, ptr %54, align 8
  %56 = load i64, ptr %15, align 8
  %57 = icmp ne i64 %55, %56
  br i1 %57, label %58, label %64

58:                                               ; preds = %52
  %59 = call i32 (ptr, ...) @printf(ptr noundef @.str.12, ptr noundef @__func__.validate_data)
  %60 = load i64, ptr %15, align 8
  %61 = trunc i64 %60 to i32
  %62 = call i32 (ptr, ...) @printf(ptr noundef @.str.18, i32 noundef %61)
  %63 = call i32 (ptr, ...) @printf(ptr noundef @.str.14)
  store i64 1, ptr %8, align 8
  br label %173

64:                                               ; preds = %52
  %65 = load ptr, ptr %9, align 8
  %66 = getelementptr inbounds %struct.OSQPCscMatrix, ptr %65, i32 0, i32 0
  %67 = load i64, ptr %66, align 8
  %68 = load ptr, ptr %9, align 8
  %69 = getelementptr inbounds %struct.OSQPCscMatrix, ptr %68, i32 0, i32 1
  %70 = load i64, ptr %69, align 8
  %71 = icmp ne i64 %67, %70
  br i1 %71, label %72, label %76

72:                                               ; preds = %64
  %73 = call i32 (ptr, ...) @printf(ptr noundef @.str.12, ptr noundef @__func__.validate_data)
  %74 = call i32 (ptr, ...) @printf(ptr noundef @.str.19)
  %75 = call i32 (ptr, ...) @printf(ptr noundef @.str.14)
  store i64 1, ptr %8, align 8
  br label %173

76:                                               ; preds = %64
  store i64 0, ptr %16, align 8
  br label %77

77:                                               ; preds = %116, %76
  %78 = load i64, ptr %16, align 8
  %79 = load i64, ptr %15, align 8
  %80 = icmp slt i64 %78, %79
  br i1 %80, label %81, label %119

81:                                               ; preds = %77
  %82 = load ptr, ptr %9, align 8
  %83 = getelementptr inbounds %struct.OSQPCscMatrix, ptr %82, i32 0, i32 2
  %84 = load ptr, ptr %83, align 8
  %85 = load i64, ptr %16, align 8
  %86 = getelementptr inbounds i64, ptr %84, i64 %85
  %87 = load i64, ptr %86, align 8
  store i64 %87, ptr %17, align 8
  br label %88

88:                                               ; preds = %112, %81
  %89 = load i64, ptr %17, align 8
  %90 = load ptr, ptr %9, align 8
  %91 = getelementptr inbounds %struct.OSQPCscMatrix, ptr %90, i32 0, i32 2
  %92 = load ptr, ptr %91, align 8
  %93 = load i64, ptr %16, align 8
  %94 = add nsw i64 %93, 1
  %95 = getelementptr inbounds i64, ptr %92, i64 %94
  %96 = load i64, ptr %95, align 8
  %97 = icmp slt i64 %89, %96
  br i1 %97, label %98, label %115

98:                                               ; preds = %88
  %99 = load ptr, ptr %9, align 8
  %100 = getelementptr inbounds %struct.OSQPCscMatrix, ptr %99, i32 0, i32 3
  %101 = load ptr, ptr %100, align 8
  %102 = load i64, ptr %17, align 8
  %103 = getelementptr inbounds i64, ptr %101, i64 %102
  %104 = load i64, ptr %103, align 8
  %105 = load i64, ptr %16, align 8
  %106 = icmp sgt i64 %104, %105
  br i1 %106, label %107, label %111

107:                                              ; preds = %98
  %108 = call i32 (ptr, ...) @printf(ptr noundef @.str.12, ptr noundef @__func__.validate_data)
  %109 = call i32 (ptr, ...) @printf(ptr noundef @.str.20)
  %110 = call i32 (ptr, ...) @printf(ptr noundef @.str.14)
  store i64 1, ptr %8, align 8
  br label %173

111:                                              ; preds = %98
  br label %112

112:                                              ; preds = %111
  %113 = load i64, ptr %17, align 8
  %114 = add nsw i64 %113, 1
  store i64 %114, ptr %17, align 8
  br label %88, !llvm.loop !4

115:                                              ; preds = %88
  br label %116

116:                                              ; preds = %115
  %117 = load i64, ptr %16, align 8
  %118 = add nsw i64 %117, 1
  store i64 %118, ptr %16, align 8
  br label %77, !llvm.loop !6

119:                                              ; preds = %77
  %120 = load ptr, ptr %11, align 8
  %121 = getelementptr inbounds %struct.OSQPCscMatrix, ptr %120, i32 0, i32 0
  %122 = load i64, ptr %121, align 8
  %123 = load i64, ptr %14, align 8
  %124 = icmp ne i64 %122, %123
  br i1 %124, label %131, label %125

125:                                              ; preds = %119
  %126 = load ptr, ptr %11, align 8
  %127 = getelementptr inbounds %struct.OSQPCscMatrix, ptr %126, i32 0, i32 1
  %128 = load i64, ptr %127, align 8
  %129 = load i64, ptr %15, align 8
  %130 = icmp ne i64 %128, %129
  br i1 %130, label %131, label %139

131:                                              ; preds = %125, %119
  %132 = call i32 (ptr, ...) @printf(ptr noundef @.str.12, ptr noundef @__func__.validate_data)
  %133 = load i64, ptr %14, align 8
  %134 = trunc i64 %133 to i32
  %135 = load i64, ptr %15, align 8
  %136 = trunc i64 %135 to i32
  %137 = call i32 (ptr, ...) @printf(ptr noundef @.str.21, i32 noundef %134, i32 noundef %136)
  %138 = call i32 (ptr, ...) @printf(ptr noundef @.str.14)
  store i64 1, ptr %8, align 8
  br label %173

139:                                              ; preds = %125
  store i64 0, ptr %16, align 8
  br label %140

140:                                              ; preds = %169, %139
  %141 = load i64, ptr %16, align 8
  %142 = load i64, ptr %14, align 8
  %143 = icmp slt i64 %141, %142
  br i1 %143, label %144, label %172

144:                                              ; preds = %140
  %145 = load ptr, ptr %12, align 8
  %146 = load i64, ptr %16, align 8
  %147 = getelementptr inbounds double, ptr %145, i64 %146
  %148 = load double, ptr %147, align 8
  %149 = load ptr, ptr %13, align 8
  %150 = load i64, ptr %16, align 8
  %151 = getelementptr inbounds double, ptr %149, i64 %150
  %152 = load double, ptr %151, align 8
  %153 = fcmp ogt double %148, %152
  br i1 %153, label %154, label %168

154:                                              ; preds = %144
  %155 = call i32 (ptr, ...) @printf(ptr noundef @.str.12, ptr noundef @__func__.validate_data)
  %156 = load i64, ptr %16, align 8
  %157 = trunc i64 %156 to i32
  %158 = load ptr, ptr %12, align 8
  %159 = load i64, ptr %16, align 8
  %160 = getelementptr inbounds double, ptr %158, i64 %159
  %161 = load double, ptr %160, align 8
  %162 = load ptr, ptr %13, align 8
  %163 = load i64, ptr %16, align 8
  %164 = getelementptr inbounds double, ptr %162, i64 %163
  %165 = load double, ptr %164, align 8
  %166 = call i32 (ptr, ...) @printf(ptr noundef @.str.22, i32 noundef %157, double noundef %161, double noundef %165)
  %167 = call i32 (ptr, ...) @printf(ptr noundef @.str.14)
  store i64 1, ptr %8, align 8
  br label %173

168:                                              ; preds = %144
  br label %169

169:                                              ; preds = %168
  %170 = load i64, ptr %16, align 8
  %171 = add nsw i64 %170, 1
  store i64 %171, ptr %16, align 8
  br label %140, !llvm.loop !7

172:                                              ; preds = %140
  store i64 0, ptr %8, align 8
  br label %173

173:                                              ; preds = %172, %154, %131, %107, %72, %58, %44, %34, %27, %20
  %174 = load i64, ptr %8, align 8
  ret i64 %174
}