; Function Attrs: nofree nounwind uwtable
define range(i64 0, 2) i64 @validate_data(ptr noundef readonly %0, ptr noundef readnone %1, ptr noundef readonly %2, ptr noundef readonly captures(none) %3, ptr noundef readonly captures(none) %4, i64 noundef %5, i64 noundef %6) local_unnamed_addr #6 {
  %.not = icmp eq ptr %0, null
  br i1 %.not, label %8, label %11

8:                                                ; preds = %7
  %9 = tail call i32 (ptr, ...) @printf(ptr noundef nonnull dereferenceable(1) @.str.12, ptr noundef nonnull @__func__.validate_data)
  %10 = tail call i32 (ptr, ...) @printf(ptr noundef nonnull dereferenceable(1) @.str.13)
  br label %.loopexit.sink.split

11:                                               ; preds = %7
  %.not50 = icmp eq ptr %2, null
  br i1 %.not50, label %12, label %15

12:                                               ; preds = %11
  %13 = tail call i32 (ptr, ...) @printf(ptr noundef nonnull dereferenceable(1) @.str.12, ptr noundef nonnull @__func__.validate_data)
  %14 = tail call i32 (ptr, ...) @printf(ptr noundef nonnull dereferenceable(1) @.str.15)
  br label %.loopexit.sink.split

15:                                               ; preds = %11
  %.not52 = icmp eq ptr %1, null
  br i1 %.not52, label %16, label %19

16:                                               ; preds = %15
  %17 = tail call i32 (ptr, ...) @printf(ptr noundef nonnull dereferenceable(1) @.str.12, ptr noundef nonnull @__func__.validate_data)
  %18 = tail call i32 (ptr, ...) @printf(ptr noundef nonnull dereferenceable(1) @.str.16)
  br label %.loopexit.sink.split

19:                                               ; preds = %15
  %20 = icmp slt i64 %6, 1
  %21 = icmp slt i64 %5, 0
  %or.cond = or i1 %21, %20
  br i1 %or.cond, label %22, label %27

22:                                               ; preds = %19
  %23 = tail call i32 (ptr, ...) @printf(ptr noundef nonnull dereferenceable(1) @.str.12, ptr noundef nonnull @__func__.validate_data)
  %24 = trunc i64 %6 to i32
  %25 = trunc i64 %5 to i32
  %26 = tail call i32 (ptr, ...) @printf(ptr noundef nonnull dereferenceable(1) @.str.17, i32 noundef %24, i32 noundef %25)
  br label %.loopexit.sink.split

27:                                               ; preds = %19
  %28 = load i64, ptr %0, align 8
  %.not54 = icmp eq i64 %28, %6
  br i1 %.not54, label %33, label %29

29:                                               ; preds = %27
  %30 = tail call i32 (ptr, ...) @printf(ptr noundef nonnull dereferenceable(1) @.str.12, ptr noundef nonnull @__func__.validate_data)
  %31 = trunc i64 %6 to i32
  %32 = tail call i32 (ptr, ...) @printf(ptr noundef nonnull dereferenceable(1) @.str.18, i32 noundef %31)
  br label %.loopexit.sink.split

33:                                               ; preds = %27
  %34 = getelementptr inbounds nuw i8, ptr %0, i64 8
  %35 = load i64, ptr %34, align 8
  %.not55 = icmp eq i64 %6, %35
  br i1 %.not55, label %.lr.ph72, label %39

.lr.ph72:                                         ; preds = %33
  %36 = getelementptr inbounds nuw i8, ptr %0, i64 16
  %37 = load ptr, ptr %36, align 8
  %38 = getelementptr inbounds nuw i8, ptr %0, i64 24
  %.pre = load i64, ptr %37, align 8
  br label %42

39:                                               ; preds = %33
  %40 = tail call i32 (ptr, ...) @printf(ptr noundef nonnull dereferenceable(1) @.str.12, ptr noundef nonnull @__func__.validate_data)
  %41 = tail call i32 (ptr, ...) @printf(ptr noundef nonnull dereferenceable(1) @.str.19)
  br label %.loopexit.sink.split

.loopexit64:                                      ; preds = %49, %42
  %exitcond77.not = icmp eq i64 %44, %6
  br i1 %exitcond77.not, label %._crit_edge, label %42, !llvm.loop !4

42:                                               ; preds = %.lr.ph72, %.loopexit64
  %43 = phi i64 [ %.pre, %.lr.ph72 ], [ %46, %.loopexit64 ]
  %.04371 = phi i64 [ 0, %.lr.ph72 ], [ %44, %.loopexit64 ]
  %44 = add nuw nsw i64 %.04371, 1
  %45 = getelementptr inbounds nuw i64, ptr %37, i64 %44
  %46 = load i64, ptr %45, align 8
  %47 = icmp slt i64 %43, %46
  br i1 %47, label %.lr.ph, label %.loopexit64

.lr.ph:                                           ; preds = %42
  %48 = load ptr, ptr %38, align 8
  br label %51

49:                                               ; preds = %51
  %50 = add i64 %.070, 1
  %exitcond.not = icmp eq i64 %50, %46
  br i1 %exitcond.not, label %.loopexit64, label %51, !llvm.loop !6

51:                                               ; preds = %.lr.ph, %49
  %.070 = phi i64 [ %43, %.lr.ph ], [ %50, %49 ]
  %52 = getelementptr inbounds i64, ptr %48, i64 %.070
  %53 = load i64, ptr %52, align 8
  %54 = icmp sgt i64 %53, %.04371
  br i1 %54, label %55, label %49

55:                                               ; preds = %51
  %56 = tail call i32 (ptr, ...) @printf(ptr noundef nonnull dereferenceable(1) @.str.12, ptr noundef nonnull @__func__.validate_data)
  %57 = tail call i32 (ptr, ...) @printf(ptr noundef nonnull dereferenceable(1) @.str.20)
  br label %.loopexit.sink.split

._crit_edge:                                      ; preds = %.loopexit64
  %58 = load i64, ptr %2, align 8
  %.not56 = icmp eq i64 %58, %5
  br i1 %.not56, label %59, label %63

59:                                               ; preds = %._crit_edge
  %60 = getelementptr inbounds nuw i8, ptr %2, i64 8
  %61 = load i64, ptr %60, align 8
  %.not57 = icmp eq i64 %61, %6
  br i1 %.not57, label %.preheader, label %63

.preheader:                                       ; preds = %59
  %62 = icmp sgt i64 %5, 0
  br i1 %62, label %.lr.ph75, label %.loopexit

63:                                               ; preds = %59, %._crit_edge
  %64 = tail call i32 (ptr, ...) @printf(ptr noundef nonnull dereferenceable(1) @.str.12, ptr noundef nonnull @__func__.validate_data)
  %65 = trunc i64 %5 to i32
  %66 = trunc i64 %6 to i32
  %67 = tail call i32 (ptr, ...) @printf(ptr noundef nonnull dereferenceable(1) @.str.21, i32 noundef %65, i32 noundef %66)
  br label %.loopexit.sink.split

.lr.ph75:                                         ; preds = %.preheader, %81
  %.174 = phi i64 [ %82, %81 ], [ 0, %.preheader ]
  %68 = getelementptr inbounds nuw double, ptr %3, i64 %.174
  %69 = load double, ptr %68, align 8
  %70 = getelementptr inbounds nuw double, ptr %4, i64 %.174
  %71 = load double, ptr %70, align 8
  %72 = fcmp ogt double %69, %71
  br i1 %72, label %73, label %81

73:                                               ; preds = %.lr.ph75
  %74 = getelementptr inbounds nuw double, ptr %3, i64 %.174
  %75 = getelementptr inbounds nuw double, ptr %4, i64 %.174
  %76 = tail call i32 (ptr, ...) @printf(ptr noundef nonnull dereferenceable(1) @.str.12, ptr noundef nonnull @__func__.validate_data)
  %77 = trunc i64 %.174 to i32
  %78 = load double, ptr %74, align 8
  %79 = load double, ptr %75, align 8
  %80 = tail call i32 (ptr, ...) @printf(ptr noundef nonnull dereferenceable(1) @.str.22, i32 noundef %77, double noundef %78, double noundef %79)
  br label %.loopexit.sink.split

81:                                               ; preds = %.lr.ph75
  %82 = add nuw nsw i64 %.174, 1
  %exitcond78.not = icmp eq i64 %82, %5
  br i1 %exitcond78.not, label %.loopexit, label %.lr.ph75, !llvm.loop !7

.loopexit.sink.split:                             ; preds = %8, %12, %16, %22, %29, %39, %55, %63, %73
  %putchar58 = tail call i32 @putchar(i32 10)
  br label %.loopexit

.loopexit:                                        ; preds = %81, %.loopexit.sink.split, %.preheader
  %.044 = phi i64 [ 0, %.preheader ], [ 1, %.loopexit.sink.split ], [ 0, %81 ]
  ret i64 %.044
}